target datalayout = "e-m:e-p270:32:32-p271:32:32-p272:64:64-i64:64-i128:128-f80:128-n8:16:32:64-S128"
target triple = "x86_64-unknown-linux-gnu"

%"class.absl::debian2::string_view" = type { ptr, i64 }
%"struct.re2::RuneRange" = type { i32, i32 }
%"class.re2::RegexpStatus" = type { i32, %"class.absl::debian2::string_view", ptr }
%class.anon = type { i8 }
%class.anon.29 = type { i8 }
%class.anon.27 = type { i8 }

; Function Attrs: mustprogress nounwind uwtable
define linkonce_odr void @_ZZN4absl7debian211string_view19CheckLengthInternalEmENKUlvE_clEv(ptr noundef nonnull align 1 dereferenceable(1) %this) #0 comdat align 2 {
entry:
  %this.addr = alloca ptr, align 8
  store ptr %this, ptr %this.addr, align 8
  br label %do.body

do.body:                                          ; preds = %entry
  call void @llvm.trap()
  unreachable

do.end:                                           ; No predecessors!
  ret void
}

; Function Attrs: mustprogress uwtable
define linkonce_odr noundef i64 @_ZN4absl7debian211string_view19CheckLengthInternalEm(i64 noundef %len) #1 comdat align 2 {
entry:
  %len.addr = alloca i64, align 8
  %ref.tmp = alloca %class.anon.27, align 1
  store i64 %len, ptr %len.addr, align 8
  %0 = load i64, ptr %len.addr, align 8
  %cmp = icmp ule i64 %0, 9223372036854775807
  br i1 %cmp, label %cond.true, label %cond.false

cond.true:                                        ; preds = %entry
  br label %cond.end

cond.false:                                       ; preds = %entry
  call void @_ZZN4absl7debian211string_view19CheckLengthInternalEmENKUlvE_clEv(ptr noundef nonnull align 1 dereferenceable(1) %ref.tmp)
  br label %cond.end

cond.end:                                         ; preds = %cond.false, %cond.true
  %1 = load i64, ptr %len.addr, align 8
  ret i64 %1
}

; Function Attrs: mustprogress nounwind uwtable
define linkonce_odr void @_ZZN4absl7debian211string_view13remove_prefixEmENKUlvE_clEv(ptr noundef nonnull align 1 dereferenceable(1) %this) #0 comdat align 2 {
entry:
  %this.addr = alloca ptr, align 8
  store ptr %this, ptr %this.addr, align 8
  br label %do.body

do.body:                                          ; preds = %entry
  call void @llvm.trap()
  unreachable

do.end:                                           ; No predecessors!
  ret void
}

; Function Attrs: mustprogress nounwind uwtable
define linkonce_odr void @_ZZNK4absl7debian211string_viewixEmENKUlvE_clEv(ptr noundef nonnull align 1 dereferenceable(1) %this) #0 comdat align 2 {
entry:
  %this.addr = alloca ptr, align 8
  store ptr %this, ptr %this.addr, align 8
  br label %do.body

do.body:                                          ; preds = %entry
  call void @llvm.trap()
  unreachable

do.end:                                           ; No predecessors!
  ret void
}

; Function Attrs: mustprogress nounwind uwtable
define linkonce_odr void @_ZN3re212RegexpStatus13set_error_argEN4absl7debian211string_viewE(ptr noundef nonnull align 8 dereferenceable(32) %this, ptr %error_arg.coerce0, i64 %error_arg.coerce1) #0 comdat align 2 {
entry:
  %error_arg = alloca %"class.absl::debian2::string_view", align 8
  %this.addr = alloca ptr, align 8
  %0 = getelementptr inbounds { ptr, i64 }, ptr %error_arg, i32 0, i32 0
  store ptr %error_arg.coerce0, ptr %0, align 8
  %1 = getelementptr inbounds { ptr, i64 }, ptr %error_arg, i32 0, i32 1
  store i64 %error_arg.coerce1, ptr %1, align 8
  store ptr %this, ptr %this.addr, align 8
  %this1 = load ptr, ptr %this.addr, align 8
  %error_arg_ = getelementptr inbounds %"class.re2::RegexpStatus", ptr %this1, i32 0, i32 1
  call void @llvm.memcpy.p0.p0.i64(ptr align 8 %error_arg_, ptr align 8 %error_arg, i64 16, i1 false)
  ret void
}

; Function Attrs: mustprogress uwtable
define linkonce_odr void @_ZN4absl7debian211string_viewC2EPKcm(ptr noundef nonnull align 8 dereferenceable(16) %this, ptr noundef %data, i64 noundef %len) unnamed_addr #1 comdat align 2 {
entry:
  %this.addr = alloca ptr, align 8
  %data.addr = alloca ptr, align 8
  %len.addr = alloca i64, align 8
  store ptr %this, ptr %this.addr, align 8
  store ptr %data, ptr %data.addr, align 8
  store i64 %len, ptr %len.addr, align 8
  %this1 = load ptr, ptr %this.addr, align 8
  %ptr_ = getelementptr inbounds %"class.absl::debian2::string_view", ptr %this1, i32 0, i32 0
  %0 = load ptr, ptr %data.addr, align 8
  store ptr %0, ptr %ptr_, align 8
  %length_ = getelementptr inbounds %"class.absl::debian2::string_view", ptr %this1, i32 0, i32 1
  %1 = load i64, ptr %len.addr, align 8
  %call = call noundef i64 @_ZN4absl7debian211string_view19CheckLengthInternalEm(i64 noundef %1)
  store i64 %call, ptr %length_, align 8
  ret void
}

; Function Attrs: mustprogress nounwind uwtable
define linkonce_odr noundef ptr @_ZNK4absl7debian211string_view4dataEv(ptr noundef nonnull align 8 dereferenceable(16) %this) #0 comdat align 2 {
entry:
  %this.addr = alloca ptr, align 8
  store ptr %this, ptr %this.addr, align 8
  %this1 = load ptr, ptr %this.addr, align 8
  %ptr_ = getelementptr inbounds %"class.absl::debian2::string_view", ptr %this1, i32 0, i32 0
  %0 = load ptr, ptr %ptr_, align 8
  ret ptr %0
}

; Function Attrs: mustprogress nounwind uwtable
define linkonce_odr void @_ZN3re212RegexpStatus8set_codeENS_16RegexpStatusCodeE(ptr noundef nonnull align 8 dereferenceable(32) %this, i32 noundef %code) #0 comdat align 2 {
entry:
  %this.addr = alloca ptr, align 8
  %code.addr = alloca i32, align 4
  store ptr %this, ptr %this.addr, align 8
  store i32 %code, ptr %code.addr, align 4
  %this1 = load ptr, ptr %this.addr, align 8
  %0 = load i32, ptr %code.addr, align 4
  %code_ = getelementptr inbounds %"class.re2::RegexpStatus", ptr %this1, i32 0, i32 0
  store i32 %0, ptr %code_, align 8
  ret void
}

; Function Attrs: mustprogress uwtable
define linkonce_odr void @_ZN4absl7debian211string_view13remove_prefixEm(ptr noundef nonnull align 8 dereferenceable(16) %this, i64 noundef %n) #1 comdat align 2 {
entry:
  %this.addr = alloca ptr, align 8
  %n.addr = alloca i64, align 8
  %ref.tmp = alloca %class.anon.29, align 1
  store ptr %this, ptr %this.addr, align 8
  store i64 %n, ptr %n.addr, align 8
  %this1 = load ptr, ptr %this.addr, align 8
  %0 = load i64, ptr %n.addr, align 8
  %length_ = getelementptr inbounds %"class.absl::debian2::string_view", ptr %this1, i32 0, i32 1
  %1 = load i64, ptr %length_, align 8
  %cmp = icmp ule i64 %0, %1
  br i1 %cmp, label %cond.true, label %cond.false

cond.true:                                        ; preds = %entry
  br label %cond.end

cond.false:                                       ; preds = %entry
  call void @_ZZN4absl7debian211string_view13remove_prefixEmENKUlvE_clEv(ptr noundef nonnull align 1 dereferenceable(1) %ref.tmp)
  br label %cond.end

cond.end:                                         ; preds = %cond.false, %cond.true
  %2 = load i64, ptr %n.addr, align 8
  %ptr_ = getelementptr inbounds %"class.absl::debian2::string_view", ptr %this1, i32 0, i32 0
  %3 = load ptr, ptr %ptr_, align 8
  %add.ptr = getelementptr inbounds i8, ptr %3, i64 %2
  store ptr %add.ptr, ptr %ptr_, align 8
  %4 = load i64, ptr %n.addr, align 8
  %length_2 = getelementptr inbounds %"class.absl::debian2::string_view", ptr %this1, i32 0, i32 1
  %5 = load i64, ptr %length_2, align 8
  %sub = sub i64 %5, %4
  store i64 %sub, ptr %length_2, align 8
  ret void
}

; Function Attrs: mustprogress uwtable
define linkonce_odr noundef nonnull align 1 dereferenceable(1) ptr @_ZNK4absl7debian211string_viewixEm(ptr noundef nonnull align 8 dereferenceable(16) %this, i64 noundef %i) #1 comdat align 2 {
entry:
  %this.addr = alloca ptr, align 8
  %i.addr = alloca i64, align 8
  %ref.tmp = alloca %class.anon, align 1
  store ptr %this, ptr %this.addr, align 8
  store i64 %i, ptr %i.addr, align 8
  %this1 = load ptr, ptr %this.addr, align 8
  %0 = load i64, ptr %i.addr, align 8
  %call = call noundef i64 @_ZNK4absl7debian211string_view4sizeEv(ptr noundef nonnull align 8 dereferenceable(16) %this1) #12
  %cmp = icmp ult i64 %0, %call
  br i1 %cmp, label %cond.true, label %cond.false

cond.true:                                        ; preds = %entry
  br label %cond.end

cond.false:                                       ; preds = %entry
  call void @_ZZNK4absl7debian211string_viewixEmENKUlvE_clEv(ptr noundef nonnull align 1 dereferenceable(1) %ref.tmp)
  br label %cond.end

cond.end:                                         ; preds = %cond.false, %cond.true
  %ptr_ = getelementptr inbounds %"class.absl::debian2::string_view", ptr %this1, i32 0, i32 0
  %1 = load ptr, ptr %ptr_, align 8
  %2 = load i64, ptr %i.addr, align 8
  %arrayidx = getelementptr inbounds i8, ptr %1, i64 %2
  ret ptr %arrayidx
}

; Function Attrs: mustprogress nounwind uwtable
define linkonce_odr noundef i64 @_ZNK4absl7debian211string_view4sizeEv(ptr noundef nonnull align 8 dereferenceable(16) %this) #0 comdat align 2 {
entry:
  %this.addr = alloca ptr, align 8
  store ptr %this, ptr %this.addr, align 8
  %this1 = load ptr, ptr %this.addr, align 8
  %length_ = getelementptr inbounds %"class.absl::debian2::string_view", ptr %this1, i32 0, i32 1
  %0 = load i64, ptr %length_, align 8
  ret i64 %0
}

; Function Attrs: mustprogress uwtable
define noundef zeroext i1 @_ZN3re26Regexp10ParseState12ParseCCRangeEPN4absl7debian211string_viewEPNS_9RuneRangeES4_PNS_12RegexpStatusE(ptr noundef nonnull align 8 dereferenceable(48) %this, ptr noundef %s, ptr noundef %rr, ptr %whole_class.coerce0, i64 %whole_class.coerce1, ptr noundef %status) #1 align 2 {
entry:
  %retval = alloca i1, align 1
  %whole_class = alloca %"class.absl::debian2::string_view", align 8
  %this.addr = alloca ptr, align 8
  %s.addr = alloca ptr, align 8
  %rr.addr = alloca ptr, align 8
  %status.addr = alloca ptr, align 8
  %os = alloca %"class.absl::debian2::string_view", align 8
  %agg.tmp = alloca %"class.absl::debian2::string_view", align 8
  %agg.tmp10 = alloca %"class.absl::debian2::string_view", align 8
  %agg.tmp18 = alloca %"class.absl::debian2::string_view", align 8
  %0 = getelementptr inbounds { ptr, i64 }, ptr %whole_class, i32 0, i32 0
  store ptr %whole_class.coerce0, ptr %0, align 8
  %1 = getelementptr inbounds { ptr, i64 }, ptr %whole_class, i32 0, i32 1
  store i64 %whole_class.coerce1, ptr %1, align 8
  store ptr %this, ptr %this.addr, align 8
  store ptr %s, ptr %s.addr, align 8
  store ptr %rr, ptr %rr.addr, align 8
  store ptr %status, ptr %status.addr, align 8
  %this1 = load ptr, ptr %this.addr, align 8
  %2 = load ptr, ptr %s.addr, align 8
  call void @llvm.memcpy.p0.p0.i64(ptr align 8 %os, ptr align 8 %2, i64 16, i1 false)
  %3 = load ptr, ptr %s.addr, align 8
  %4 = load ptr, ptr %rr.addr, align 8
  %lo = getelementptr inbounds %"struct.re2::RuneRange", ptr %4, i32 0, i32 0
  call void @llvm.memcpy.p0.p0.i64(ptr align 8 %agg.tmp, ptr align 8 %whole_class, i64 16, i1 false)
  %5 = load ptr, ptr %status.addr, align 8
  %6 = getelementptr inbounds { ptr, i64 }, ptr %agg.tmp, i32 0, i32 0
  %7 = load ptr, ptr %6, align 8
  %8 = getelementptr inbounds { ptr, i64 }, ptr %agg.tmp, i32 0, i32 1
  %9 = load i64, ptr %8, align 8
  %call = call noundef zeroext i1 @_ZN3re26Regexp10ParseState16ParseCCCharacterEPN4absl7debian211string_viewEPiS4_PNS_12RegexpStatusE(ptr noundef nonnull align 8 dereferenceable(48) %this1, ptr noundef %3, ptr noundef %lo, ptr %7, i64 %9, ptr noundef %5)
  br i1 %call, label %if.end, label %if.then

if.then:                                          ; preds = %entry
  store i1 false, ptr %retval, align 1
  br label %return

if.end:                                           ; preds = %entry
  %10 = load ptr, ptr %s.addr, align 8
  %call2 = call noundef i64 @_ZNK4absl7debian211string_view4sizeEv(ptr noundef nonnull align 8 dereferenceable(16) %10) #12
  %cmp = icmp uge i64 %call2, 2
  br i1 %cmp, label %land.lhs.true, label %if.else

land.lhs.true:                                    ; preds = %if.end
  %11 = load ptr, ptr %s.addr, align 8
  %call3 = call noundef nonnull align 1 dereferenceable(1) ptr @_ZNK4absl7debian211string_viewixEm(ptr noundef nonnull align 8 dereferenceable(16) %11, i64 noundef 0)
  %12 = load i8, ptr %call3, align 1
  %conv = sext i8 %12 to i32
  %cmp4 = icmp eq i32 %conv, 45
  br i1 %cmp4, label %land.lhs.true5, label %if.else

land.lhs.true5:                                   ; preds = %land.lhs.true
  %13 = load ptr, ptr %s.addr, align 8
  %call6 = call noundef nonnull align 1 dereferenceable(1) ptr @_ZNK4absl7debian211string_viewixEm(ptr noundef nonnull align 8 dereferenceable(16) %13, i64 noundef 1)
  %14 = load i8, ptr %call6, align 1
  %conv7 = sext i8 %14 to i32
  %cmp8 = icmp ne i32 %conv7, 93
  br i1 %cmp8, label %if.then9, label %if.else

if.then9:                                         ; preds = %land.lhs.true5
  %15 = load ptr, ptr %s.addr, align 8
  call void @_ZN4absl7debian211string_view13remove_prefixEm(ptr noundef nonnull align 8 dereferenceable(16) %15, i64 noundef 1)
  %16 = load ptr, ptr %s.addr, align 8
  %17 = load ptr, ptr %rr.addr, align 8
  %hi = getelementptr inbounds %"struct.re2::RuneRange", ptr %17, i32 0, i32 1
  call void @llvm.memcpy.p0.p0.i64(ptr align 8 %agg.tmp10, ptr align 8 %whole_class, i64 16, i1 false)
  %18 = load ptr, ptr %status.addr, align 8
  %19 = getelementptr inbounds { ptr, i64 }, ptr %agg.tmp10, i32 0, i32 0
  %20 = load ptr, ptr %19, align 8
  %21 = getelementptr inbounds { ptr, i64 }, ptr %agg.tmp10, i32 0, i32 1
  %22 = load i64, ptr %21, align 8
  %call11 = call noundef zeroext i1 @_ZN3re26Regexp10ParseState16ParseCCCharacterEPN4absl7debian211string_viewEPiS4_PNS_12RegexpStatusE(ptr noundef nonnull align 8 dereferenceable(48) %this1, ptr noundef %16, ptr noundef %hi, ptr %20, i64 %22, ptr noundef %18)
  br i1 %call11, label %if.end13, label %if.then12

if.then12:                                        ; preds = %if.then9
  store i1 false, ptr %retval, align 1
  br label %return

if.end13:                                         ; preds = %if.then9
  %23 = load ptr, ptr %rr.addr, align 8
  %hi14 = getelementptr inbounds %"struct.re2::RuneRange", ptr %23, i32 0, i32 1
  %24 = load i32, ptr %hi14, align 4
  %25 = load ptr, ptr %rr.addr, align 8
  %lo15 = getelementptr inbounds %"struct.re2::RuneRange", ptr %25, i32 0, i32 0
  %26 = load i32, ptr %lo15, align 4
  %cmp16 = icmp slt i32 %24, %26
  br i1 %cmp16, label %if.then17, label %if.end22

if.then17:                                        ; preds = %if.end13
  %27 = load ptr, ptr %status.addr, align 8
  call void @_ZN3re212RegexpStatus8set_codeENS_16RegexpStatusCodeE(ptr noundef nonnull align 8 dereferenceable(32) %27, i32 noundef 4)
  %28 = load ptr, ptr %status.addr, align 8
  %call19 = call noundef ptr @_ZNK4absl7debian211string_view4dataEv(ptr noundef nonnull align 8 dereferenceable(16) %os) #12
  %29 = load ptr, ptr %s.addr, align 8
  %call20 = call noundef ptr @_ZNK4absl7debian211string_view4dataEv(ptr noundef nonnull align 8 dereferenceable(16) %29) #12
  %call21 = call noundef ptr @_ZNK4absl7debian211string_view4dataEv(ptr noundef nonnull align 8 dereferenceable(16) %os) #12
  %sub.ptr.lhs.cast = ptrtoint ptr %call20 to i64
  %sub.ptr.rhs.cast = ptrtoint ptr %call21 to i64
  %sub.ptr.sub = sub i64 %sub.ptr.lhs.cast, %sub.ptr.rhs.cast
  call void @_ZN4absl7debian211string_viewC2EPKcm(ptr noundef nonnull align 8 dereferenceable(16) %agg.tmp18, ptr noundef %call19, i64 noundef %sub.ptr.sub)
  %30 = getelementptr inbounds { ptr, i64 }, ptr %agg.tmp18, i32 0, i32 0
  %31 = load ptr, ptr %30, align 8
  %32 = getelementptr inbounds { ptr, i64 }, ptr %agg.tmp18, i32 0, i32 1
  %33 = load i64, ptr %32, align 8
  call void @_ZN3re212RegexpStatus13set_error_argEN4absl7debian211string_viewE(ptr noundef nonnull align 8 dereferenceable(32) %28, ptr %31, i64 %33)
  store i1 false, ptr %retval, align 1
  br label %return

if.end22:                                         ; preds = %if.end13
  br label %if.end25

if.else:                                          ; preds = %land.lhs.true5, %land.lhs.true, %if.end
  %34 = load ptr, ptr %rr.addr, align 8
  %lo23 = getelementptr inbounds %"struct.re2::RuneRange", ptr %34, i32 0, i32 0
  %35 = load i32, ptr %lo23, align 4
  %36 = load ptr, ptr %rr.addr, align 8
  %hi24 = getelementptr inbounds %"struct.re2::RuneRange", ptr %36, i32 0, i32 1
  store i32 %35, ptr %hi24, align 4
  br label %if.end25

if.end25:                                         ; preds = %if.else, %if.end22
  store i1 true, ptr %retval, align 1
  br label %return

return:                                           ; preds = %if.end25, %if.then17, %if.then12, %if.then
  %37 = load i1, ptr %retval, align 1
  ret i1 %37
}