; Function Attrs: mustprogress uwtable
define noundef zeroext i1 @_ZN3re26Regexp10ParseState12ParseCCRangeEPN4absl7debian211string_viewEPNS_9RuneRangeES4_PNS_12RegexpStatusE(ptr nocapture noundef nonnull readonly align 8 dereferenceable(48) %this, ptr nocapture noundef %s, ptr noundef %rr, ptr %whole_class.coerce0, i64 %whole_class.coerce1, ptr noundef %status) local_unnamed_addr #8 align 2 {
entry:
  %os.sroa.0.0.copyload = load ptr, ptr %s, align 8
  %os.sroa.3.0.s.sroa_idx = getelementptr inbounds i8, ptr %s, i64 8
  %call = tail call noundef zeroext i1 @_ZN3re26Regexp10ParseState16ParseCCCharacterEPN4absl7debian211string_viewEPiS4_PNS_12RegexpStatusE(ptr noundef nonnull align 8 dereferenceable(48) %this, ptr noundef nonnull %s, ptr noundef %rr, ptr %whole_class.coerce0, i64 %whole_class.coerce1, ptr noundef %status)
  br i1 %call, label %if.end, label %return

if.end:                                           ; preds = %entry
  %0 = load i64, ptr %os.sroa.3.0.s.sroa_idx, align 8
  %cmp = icmp ugt i64 %0, 1
  br i1 %cmp, label %_ZNK4absl7debian211string_viewixEm.exit, label %if.else

_ZNK4absl7debian211string_viewixEm.exit:          ; preds = %if.end
  %1 = load ptr, ptr %s, align 8
  %2 = load i8, ptr %1, align 1
  %cmp4 = icmp eq i8 %2, 45
  br i1 %cmp4, label %_ZNK4absl7debian211string_viewixEm.exit20, label %if.else

_ZNK4absl7debian211string_viewixEm.exit20:        ; preds = %_ZNK4absl7debian211string_viewixEm.exit
  %arrayidx.i = getelementptr inbounds i8, ptr %1, i64 1
  %3 = load i8, ptr %arrayidx.i, align 1
  %cmp8.not = icmp eq i8 %3, 93
  br i1 %cmp8.not, label %if.else, label %_ZN4absl7debian211string_view13remove_prefixEm.exit

_ZN4absl7debian211string_view13remove_prefixEm.exit: ; preds = %_ZNK4absl7debian211string_viewixEm.exit20
  store ptr %arrayidx.i, ptr %s, align 8
  %sub.i = add i64 %0, -1
  store i64 %sub.i, ptr %os.sroa.3.0.s.sroa_idx, align 8
  %hi = getelementptr inbounds i8, ptr %rr, i64 4
  %call11 = tail call noundef zeroext i1 @_ZN3re26Regexp10ParseState16ParseCCCharacterEPN4absl7debian211string_viewEPiS4_PNS_12RegexpStatusE(ptr noundef nonnull align 8 dereferenceable(48) %this, ptr noundef nonnull %s, ptr noundef nonnull %hi, ptr %whole_class.coerce0, i64 %whole_class.coerce1, ptr noundef %status)
  br i1 %call11, label %if.end13, label %return

if.end13:                                         ; preds = %_ZN4absl7debian211string_view13remove_prefixEm.exit
  %4 = load i32, ptr %hi, align 4
  %5 = load i32, ptr %rr, align 4
  %cmp16 = icmp slt i32 %4, %5
  br i1 %cmp16, label %if.then17, label %return

if.then17:                                        ; preds = %if.end13
  store i32 4, ptr %status, align 8
  %6 = load ptr, ptr %s, align 8
  %sub.ptr.lhs.cast = ptrtoint ptr %6 to i64
  %sub.ptr.rhs.cast = ptrtoint ptr %os.sroa.0.0.copyload to i64
  %sub.ptr.sub = sub i64 %sub.ptr.lhs.cast, %sub.ptr.rhs.cast
  %cmp.i.i = icmp sgt i64 %sub.ptr.sub, -1
  br i1 %cmp.i.i, label %_ZN4absl7debian211string_viewC2EPKcm.exit, label %cond.false.i.i

cond.false.i.i:                                   ; preds = %if.then17
  tail call void @llvm.trap()
  unreachable

_ZN4absl7debian211string_viewC2EPKcm.exit:        ; preds = %if.then17
  %error_arg_.i = getelementptr inbounds i8, ptr %status, i64 8
  store ptr %os.sroa.0.0.copyload, ptr %error_arg_.i, align 8
  %error_arg.sroa.2.0.error_arg_.sroa_idx.i = getelementptr inbounds i8, ptr %status, i64 16
  store i64 %sub.ptr.sub, ptr %error_arg.sroa.2.0.error_arg_.sroa_idx.i, align 8
  br label %return

if.else:                                          ; preds = %_ZNK4absl7debian211string_viewixEm.exit20, %_ZNK4absl7debian211string_viewixEm.exit, %if.end
  %7 = load i32, ptr %rr, align 4
  %hi24 = getelementptr inbounds i8, ptr %rr, i64 4
  store i32 %7, ptr %hi24, align 4
  br label %return

return:                                           ; preds = %if.else, %if.end13, %_ZN4absl7debian211string_view13remove_prefixEm.exit, %entry, %_ZN4absl7debian211string_viewC2EPKcm.exit
  %retval.0 = phi i1 [ false, %_ZN4absl7debian211string_viewC2EPKcm.exit ], [ false, %entry ], [ false, %_ZN4absl7debian211string_view13remove_prefixEm.exit ], [ true, %if.end13 ], [ true, %if.else ]
  ret i1 %retval.0
}